; Function Attrs: mustprogress uwtable
define noundef range(i32 -1, 1) i32 @_ZN3zmq21routing_socket_base_t11xsetsockoptEiPKvm(ptr noundef nonnull align 8 dereferenceable(1912) %0, i32 noundef %1, ptr noundef %2, i64 noundef %3) unnamed_addr #0 align 2 {
  %cond = icmp eq i32 %1, 61
  br i1 %cond, label %5, label %13

5:                                                ; preds = %4
  %6 = icmp ne ptr %2, null
  %7 = icmp ne i64 %3, 0
  %or.cond = and i1 %6, %7
  br i1 %or.cond, label %8, label %13

8:                                                ; preds = %5
  %9 = getelementptr inbounds nuw i8, ptr %0, i64 1880
  %10 = getelementptr inbounds nuw i8, ptr %0, i64 1888
  %11 = load i64, ptr %10, align 8, !tbaa !16
  %12 = tail call noundef nonnull align 8 dereferenceable(32) ptr @_ZNSt7__cxx1112basic_stringIcSt11char_traitsIcESaIcEE10_M_replaceEmmPKcm(ptr noundef nonnull align 8 dereferenceable(32) %9, i64 noundef 0, i64 noundef %11, ptr noundef nonnull %2, i64 noundef %3)
  br label %15

13:                                               ; preds = %5, %4
  %14 = tail call ptr @__errno_location() #39
  store i32 22, ptr %14, align 4, !tbaa !17
  br label %15

15:                                               ; preds = %13, %8
  %.0 = phi i32 [ 0, %8 ], [ -1, %13 ]
  ret i32 %.0
}